; ModuleID = '21/1245.cpp'
source_filename = "21/1245.cpp"
target datalayout = "e-m:e-p270:32:32-p271:32:32-p272:64:64-i64:64-f80:128-n8:16:32:64-S128"
target triple = "x86_64-pc-linux-gnu"

%"class.std::ios_base::Init" = type { i8 }
%"class.std::basic_istream" = type { i32 (...)**, i64, %"class.std::basic_ios" }
%"class.std::basic_ios" = type { %"class.std::ios_base", %"class.std::basic_ostream"*, i8, i8, %"class.std::basic_streambuf"*, %"class.std::ctype"*, %"class.std::num_put"*, %"class.std::num_get"* }
%"class.std::ios_base" = type { i32 (...)**, i64, i64, i32, i32, i32, %"struct.std::ios_base::_Callback_list"*, %"struct.std::ios_base::_Words", [8 x %"struct.std::ios_base::_Words"], i32, %"struct.std::ios_base::_Words"*, %"class.std::locale" }
%"struct.std::ios_base::_Callback_list" = type { %"struct.std::ios_base::_Callback_list"*, void (i32, %"class.std::ios_base"*, i32)*, i32, i32 }
%"struct.std::ios_base::_Words" = type { i8*, i64 }
%"class.std::locale" = type { %"class.std::locale::_Impl"* }
%"class.std::locale::_Impl" = type { i32, %"class.std::locale::facet"**, i64, %"class.std::locale::facet"**, i8** }
%"class.std::locale::facet" = type <{ i32 (...)**, i32, [4 x i8] }>
%"class.std::basic_ostream" = type { i32 (...)**, %"class.std::basic_ios" }
%"class.std::basic_streambuf" = type { i32 (...)**, i8*, i8*, i8*, i8*, i8*, i8*, %"class.std::locale" }
%"class.std::ctype" = type <{ %"class.std::locale::facet.base", [4 x i8], %struct.__locale_struct*, i8, [7 x i8], i32*, i32*, i16*, i8, [256 x i8], [256 x i8], i8, [6 x i8] }>
%"class.std::locale::facet.base" = type <{ i32 (...)**, i32 }>
%struct.__locale_struct = type { [13 x %struct.__locale_data*], i16*, i32*, i32*, [13 x i8*] }
%struct.__locale_data = type opaque
%"class.std::num_put" = type { %"class.std::locale::facet.base", [4 x i8] }
%"class.std::num_get" = type { %"class.std::locale::facet.base", [4 x i8] }

$_ZSt4fabsf = comdat any

@_ZStL8__ioinit = internal global %"class.std::ios_base::Init" zeroinitializer, align 1
@__dso_handle = external hidden global i8
@_ZSt3cin = external dso_local global %"class.std::basic_istream", align 8
@_ZSt4cout = external dso_local global %"class.std::basic_ostream", align 8
@llvm.global_ctors = appending global [1 x { i32, void ()*, i8* }] [{ i32, void ()*, i8* } { i32 65535, void ()* @_GLOBAL__sub_I_1245.cpp, i8* null }]

; Function Attrs: noinline uwtable
define internal void @__cxx_global_var_init() #0 section ".text.startup" {
  call void @_ZNSt8ios_base4InitC1Ev(%"class.std::ios_base::Init"* @_ZStL8__ioinit)
  %1 = call i32 @__cxa_atexit(void (i8*)* bitcast (void (%"class.std::ios_base::Init"*)* @_ZNSt8ios_base4InitD1Ev to void (i8*)*), i8* getelementptr inbounds (%"class.std::ios_base::Init", %"class.std::ios_base::Init"* @_ZStL8__ioinit, i32 0, i32 0), i8* @__dso_handle) #3
  ret void
}

declare dso_local void @_ZNSt8ios_base4InitC1Ev(%"class.std::ios_base::Init"*) unnamed_addr #1

; Function Attrs: nounwind
declare dso_local void @_ZNSt8ios_base4InitD1Ev(%"class.std::ios_base::Init"*) unnamed_addr #2

; Function Attrs: nounwind
declare dso_local i32 @__cxa_atexit(void (i8*)*, i8*, i8*) #3

; Function Attrs: noinline norecurse uwtable
define dso_local i32 @main() #4 {
  %1 = alloca i32, align 4
  %2 = alloca i32, align 4
  %3 = alloca [1000 x i32], align 16
  %4 = alloca float, align 4
  %5 = alloca float, align 4
  %6 = alloca float, align 4
  %7 = alloca i32, align 4
  %8 = alloca i32, align 4
  %9 = alloca i32, align 4
  %10 = alloca i32, align 4
  store i32 0, i32* %1, align 4
  store float 0.000000e+00, float* %6, align 4
  %11 = call dereferenceable(280) %"class.std::basic_istream"* @_ZNSirsERi(%"class.std::basic_istream"* @_ZSt3cin, i32* dereferenceable(4) %2)
  store i32 0, i32* %7, align 4
  br label %12

12:                                               ; preds = %28, %0
  %13 = load i32, i32* %7, align 4
  %14 = load i32, i32* %2, align 4
  %15 = icmp slt i32 %13, %14
  br i1 %15, label %16, label %31

16:                                               ; preds = %12
  %17 = load i32, i32* %7, align 4
  %18 = sext i32 %17 to i64
  %19 = getelementptr inbounds [1000 x i32], [1000 x i32]* %3, i64 0, i64 %18
  %20 = call dereferenceable(280) %"class.std::basic_istream"* @_ZNSirsERi(%"class.std::basic_istream"* @_ZSt3cin, i32* dereferenceable(4) %19)
  %21 = load i32, i32* %7, align 4
  %22 = sext i32 %21 to i64
  %23 = getelementptr inbounds [1000 x i32], [1000 x i32]* %3, i64 0, i64 %22
  %24 = load i32, i32* %23, align 4
  %25 = sitofp i32 %24 to float
  %26 = load float, float* %6, align 4
  %27 = fadd float %26, %25
  store float %27, float* %6, align 4
  br label %28

28:                                               ; preds = %16
  %29 = load i32, i32* %7, align 4
  %30 = add nsw i32 %29, 1
  store i32 %30, i32* %7, align 4
  br label %12

31:                                               ; preds = %12
  %32 = load float, float* %6, align 4
  %33 = load i32, i32* %2, align 4
  %34 = sitofp i32 %33 to float
  %35 = fdiv float %32, %34
  store float %35, float* %4, align 4
  %36 = getelementptr inbounds [1000 x i32], [1000 x i32]* %3, i64 0, i64 0
  %37 = load i32, i32* %36, align 16
  %38 = sitofp i32 %37 to float
  %39 = load float, float* %4, align 4
  %40 = fsub float %38, %39
  %41 = call float @_ZSt4fabsf(float %40)
  store float %41, float* %5, align 4
  store i32 1, i32* %8, align 4
  br label %42

42:                                               ; preds = %67, %31
  %43 = load i32, i32* %8, align 4
  %44 = load i32, i32* %2, align 4
  %45 = icmp slt i32 %43, %44
  br i1 %45, label %46, label %70

46:                                               ; preds = %42
  %47 = load float, float* %5, align 4
  %48 = load i32, i32* %8, align 4
  %49 = sext i32 %48 to i64
  %50 = getelementptr inbounds [1000 x i32], [1000 x i32]* %3, i64 0, i64 %49
  %51 = load i32, i32* %50, align 4
  %52 = sitofp i32 %51 to float
  %53 = load float, float* %4, align 4
  %54 = fsub float %52, %53
  %55 = call float @_ZSt4fabsf(float %54)
  %56 = fcmp olt float %47, %55
  br i1 %56, label %57, label %66

57:                                               ; preds = %46
  %58 = load i32, i32* %8, align 4
  %59 = sext i32 %58 to i64
  %60 = getelementptr inbounds [1000 x i32], [1000 x i32]* %3, i64 0, i64 %59
  %61 = load i32, i32* %60, align 4
  %62 = sitofp i32 %61 to float
  %63 = load float, float* %4, align 4
  %64 = fsub float %62, %63
  %65 = call float @_ZSt4fabsf(float %64)
  store float %65, float* %5, align 4
  br label %66

66:                                               ; preds = %57, %46
  br label %67

67:                                               ; preds = %66
  %68 = load i32, i32* %8, align 4
  %69 = add nsw i32 %68, 1
  store i32 %69, i32* %8, align 4
  br label %42

70:                                               ; preds = %42
  store i32 0, i32* %9, align 4
  br label %71

71:                                               ; preds = %93, %70
  %72 = load i32, i32* %9, align 4
  %73 = load i32, i32* %2, align 4
  %74 = icmp slt i32 %72, %73
  br i1 %74, label %75, label %96

75:                                               ; preds = %71
  %76 = load i32, i32* %9, align 4
  %77 = sext i32 %76 to i64
  %78 = getelementptr inbounds [1000 x i32], [1000 x i32]* %3, i64 0, i64 %77
  %79 = load i32, i32* %78, align 4
  %80 = sitofp i32 %79 to float
  %81 = load float, float* %4, align 4
  %82 = fsub float %80, %81
  %83 = call float @_ZSt4fabsf(float %82)
  %84 = load float, float* %5, align 4
  %85 = fcmp oeq float %83, %84
  br i1 %85, label %86, label %92

86:                                               ; preds = %75
  %87 = load i32, i32* %9, align 4
  %88 = sext i32 %87 to i64
  %89 = getelementptr inbounds [1000 x i32], [1000 x i32]* %3, i64 0, i64 %88
  %90 = load i32, i32* %89, align 4
  %91 = call dereferenceable(272) %"class.std::basic_ostream"* @_ZNSolsEi(%"class.std::basic_ostream"* @_ZSt4cout, i32 %90)
  br label %96

92:                                               ; preds = %75
  br label %93

93:                                               ; preds = %92
  %94 = load i32, i32* %9, align 4
  %95 = add nsw i32 %94, 1
  store i32 %95, i32* %9, align 4
  br label %71

96:                                               ; preds = %86, %71
  %97 = load i32, i32* %9, align 4
  %98 = add nsw i32 %97, 1
  store i32 %98, i32* %10, align 4
  br label %99

99:                                               ; preds = %122, %96
  %100 = load i32, i32* %10, align 4
  %101 = load i32, i32* %2, align 4
  %102 = icmp slt i32 %100, %101
  br i1 %102, label %103, label %125

103:                                              ; preds = %99
  %104 = load i32, i32* %10, align 4
  %105 = sext i32 %104 to i64
  %106 = getelementptr inbounds [1000 x i32], [1000 x i32]* %3, i64 0, i64 %105
  %107 = load i32, i32* %106, align 4
  %108 = sitofp i32 %107 to float
  %109 = load float, float* %4, align 4
  %110 = fsub float %108, %109
  %111 = call float @_ZSt4fabsf(float %110)
  %112 = load float, float* %5, align 4
  %113 = fcmp oeq float %111, %112
  br i1 %113, label %114, label %121

114:                                              ; preds = %103
  %115 = call dereferenceable(272) %"class.std::basic_ostream"* @_ZStlsISt11char_traitsIcEERSt13basic_ostreamIcT_ES5_c(%"class.std::basic_ostream"* dereferenceable(272) @_ZSt4cout, i8 signext 44)
  %116 = load i32, i32* %10, align 4
  %117 = sext i32 %116 to i64
  %118 = getelementptr inbounds [1000 x i32], [1000 x i32]* %3, i64 0, i64 %117
  %119 = load i32, i32* %118, align 4
  %120 = call dereferenceable(272) %"class.std::basic_ostream"* @_ZNSolsEi(%"class.std::basic_ostream"* %115, i32 %119)
  br label %121

121:                                              ; preds = %114, %103
  br label %122

122:                                              ; preds = %121
  %123 = load i32, i32* %10, align 4
  %124 = add nsw i32 %123, 1
  store i32 %124, i32* %10, align 4
  br label %99

125:                                              ; preds = %99
  ret i32 0
}

declare dso_local dereferenceable(280) %"class.std::basic_istream"* @_ZNSirsERi(%"class.std::basic_istream"*, i32* dereferenceable(4)) #1

; Function Attrs: noinline nounwind uwtable
define linkonce_odr dso_local float @_ZSt4fabsf(float %0) #5 comdat {
  %2 = alloca float, align 4
  store float %0, float* %2, align 4
  %3 = load float, float* %2, align 4
  %4 = call float @llvm.fabs.f32(float %3)
  ret float %4
}

declare dso_local dereferenceable(272) %"class.std::basic_ostream"* @_ZNSolsEi(%"class.std::basic_ostream"*, i32) #1

declare dso_local dereferenceable(272) %"class.std::basic_ostream"* @_ZStlsISt11char_traitsIcEERSt13basic_ostreamIcT_ES5_c(%"class.std::basic_ostream"* dereferenceable(272), i8 signext) #1

; Function Attrs: nounwind readnone speculatable willreturn
declare float @llvm.fabs.f32(float) #6

; Function Attrs: noinline uwtable
define internal void @_GLOBAL__sub_I_1245.cpp() #0 section ".text.startup" {
  call void @__cxx_global_var_init()
  ret void
}


!llvm.module.flags = !{!0}
!llvm.ident = !{!1}

!0 = !{i32 1, !"wchar_size", i32 4}
!1 = !{!"clang version 10.0.0-4ubuntu1 "}
